; Function Attrs: null_pointer_is_valid sspstrong uwtable
define hidden noundef ptr @drange_new_from_list(ptr noundef %0) local_unnamed_addr #0 {
  %2 = tail call noalias dereferenceable_or_null(24) ptr @g_malloc(i64 noundef 24) #11
  store ptr null, ptr %2, align 8
  %3 = getelementptr inbounds nuw i8, ptr %2, i64 8
  store i8 1, ptr %3, align 8
  %4 = getelementptr inbounds nuw i8, ptr %2, i64 12
  store i32 0, ptr %4, align 4
  %5 = getelementptr inbounds nuw i8, ptr %2, i64 16
  store i32 2147483647, ptr %5, align 8
  %6 = getelementptr inbounds nuw i8, ptr %2, i64 20
  store i32 -2147483648, ptr %6, align 4
  tail call void @g_slist_foreach(ptr noundef %0, ptr noundef nonnull @drange_append_wrapper, ptr noundef %2)
  ret ptr %2
}